; Function Attrs: inlinehint nounwind uwtable
define internal fastcc void @keepwal_grow(ptr noundef captures(none) %0, i64 noundef %1) unnamed_addr #11 {
  %3 = load i64, ptr %0, align 8
  %4 = getelementptr inbounds nuw i8, ptr %0, i64 24
  %5 = load ptr, ptr %4, align 8
  %6 = tail call i64 @llvm.umax.i64(i64 %1, i64 2)
  %7 = tail call range(i64 1, 65) i64 @llvm.ctpop.i64(i64 %6)
  %8 = icmp samesign ult i64 %7, 2
  %9 = tail call range(i64 0, 65) i64 @llvm.ctlz.i64(i64 %6, i1 true)
  %10 = sub nuw nsw i64 64, %9
  %11 = shl nuw i64 1, %10
  %.0.i.i = select i1 %8, i64 %6, i64 %11
  %12 = shl i64 %.0.i.i, 4
  %13 = icmp ugt i64 %12, 9223372036854775806
  br i1 %13, label %14, label %keepwal_compute_size.exit, !prof !5

14:                                               ; preds = %2
  tail call void (i32, i32, ptr, ...) @pg_log_generic(i32 noundef 4, i32 noundef 0, ptr noundef nonnull @.str.5) #13
  tail call void @exit(i32 noundef 1) #14
  unreachable

keepwal_compute_size.exit:                        ; preds = %2
  %15 = tail call ptr @pg_malloc0(i64 noundef %12) #13
  store ptr %15, ptr %4, align 8
  %16 = tail call range(i64 1, 65) i64 @llvm.ctpop.i64(i64 %.0.i.i)
  %17 = icmp samesign ult i64 %16, 2
  %18 = tail call range(i64 0, 65) i64 @llvm.ctlz.i64(i64 %.0.i.i, i1 true)
  %19 = sub nuw nsw i64 64, %18
  %20 = shl nuw i64 1, %19
  %.0.i.i.i = select i1 %17, i64 %.0.i.i, i64 %20
  %21 = shl i64 %.0.i.i.i, 4
  %22 = icmp ugt i64 %21, 9223372036854775806
  br i1 %22, label %23, label %keepwal_update_parameters.exit, !prof !5

23:                                               ; preds = %keepwal_compute_size.exit
  tail call void (i32, i32, ptr, ...) @pg_log_generic(i32 noundef 4, i32 noundef 0, ptr noundef nonnull @.str.5) #13
  tail call void @exit(i32 noundef 1) #14
  unreachable

keepwal_update_parameters.exit:                   ; preds = %keepwal_compute_size.exit
  store i64 %.0.i.i.i, ptr %0, align 8
  %24 = trunc i64 %.0.i.i.i to i32
  %25 = add i32 %24, -1
  %26 = getelementptr inbounds nuw i8, ptr %0, i64 12
  store i32 %25, ptr %26, align 4
  %27 = icmp eq i64 %.0.i.i.i, 4294967296
  %28 = uitofp i64 %.0.i.i.i to double
  %29 = fmul double %28, 9.000000e-01
  %30 = fptoui double %29 to i32
  %.sink.i = select i1 %27, i32 -85899346, i32 %30
  %31 = getelementptr inbounds nuw i8, ptr %0, i64 16
  store i32 %.sink.i, ptr %31, align 8
  %.not71 = icmp eq i64 %3, 0
  br i1 %.not71, label %._crit_edge, label %.lr.ph

.lr.ph:                                           ; preds = %keepwal_update_parameters.exit, %40
  %32 = phi i64 [ %42, %40 ], [ 0, %keepwal_update_parameters.exit ]
  %.063 = phi i32 [ %41, %40 ], [ 0, %keepwal_update_parameters.exit ]
  %33 = getelementptr inbounds nuw %struct.keepwal_entry, ptr %5, i64 %32
  %34 = getelementptr inbounds nuw i8, ptr %33, i64 8
  %35 = load i32, ptr %34, align 8
  %.not = icmp eq i32 %35, 1
  br i1 %.not, label %36, label %.lr.ph70.preheader

36:                                               ; preds = %.lr.ph
  %.val = load ptr, ptr %33, align 8
  %37 = tail call fastcc i32 @hash_string(ptr noundef readonly %.val)
  %38 = and i32 %37, %25
  %39 = icmp eq i32 %38, %.063
  br i1 %39, label %.lr.ph70.preheader, label %40

40:                                               ; preds = %36
  %41 = add i32 %.063, 1
  %42 = zext i32 %41 to i64
  %43 = icmp ugt i64 %3, %42
  br i1 %43, label %.lr.ph, label %.lr.ph70.preheader, !llvm.loop !21

.lr.ph70.preheader:                               ; preds = %40, %.lr.ph, %36
  %.05168.ph = phi i32 [ %.063, %36 ], [ %.063, %.lr.ph ], [ 0, %40 ]
  br label %.lr.ph70

.lr.ph70:                                         ; preds = %.lr.ph70.preheader, %59
  %.169 = phi i32 [ %62, %59 ], [ 0, %.lr.ph70.preheader ]
  %.05168 = phi i32 [ %spec.store.select, %59 ], [ %.05168.ph, %.lr.ph70.preheader ]
  %44 = zext i32 %.05168 to i64
  %45 = getelementptr inbounds nuw %struct.keepwal_entry, ptr %5, i64 %44
  %46 = getelementptr inbounds nuw i8, ptr %45, i64 8
  %47 = load i32, ptr %46, align 8
  %48 = icmp eq i32 %47, 1
  br i1 %48, label %49, label %59

49:                                               ; preds = %.lr.ph70
  %.val56 = load ptr, ptr %45, align 8
  %50 = tail call fastcc i32 @hash_string(ptr noundef readonly %.val56)
  %.val58 = load i32, ptr %26, align 4
  br label %51

51:                                               ; preds = %51, %49
  %.pn = phi i32 [ %50, %49 ], [ %57, %51 ]
  %.048 = and i32 %.pn, %.val58
  %52 = zext i32 %.048 to i64
  %53 = getelementptr inbounds nuw %struct.keepwal_entry, ptr %15, i64 %52
  %54 = getelementptr inbounds nuw i8, ptr %53, i64 8
  %55 = load i32, ptr %54, align 8
  %56 = icmp eq i32 %55, 0
  %57 = add i32 %.048, 1
  br i1 %56, label %58, label %51

58:                                               ; preds = %51
  tail call void @llvm.memcpy.p0.p0.i64(ptr noundef nonnull align 8 dereferenceable(16) %53, ptr noundef nonnull align 8 dereferenceable(16) %45, i64 16, i1 false)
  br label %59

59:                                               ; preds = %58, %.lr.ph70
  %60 = add i32 %.05168, 1
  %61 = zext i32 %60 to i64
  %.not55 = icmp ugt i64 %3, %61
  %spec.store.select = select i1 %.not55, i32 %60, i32 0
  %62 = add i32 %.169, 1
  %63 = zext i32 %62 to i64
  %64 = icmp ugt i64 %3, %63
  br i1 %64, label %.lr.ph70, label %._crit_edge, !llvm.loop !22

._crit_edge:                                      ; preds = %59, %keepwal_update_parameters.exit
  tail call void @pfree(ptr noundef %5) #13
  ret void
}